; Function Attrs: mustprogress uwtable
define hidden void @_ZN4cvc58internal8EmptySetC2ERKNS0_8TypeNodeE(ptr noundef nonnull writeonly align 8 captures(none) dereferenceable(8) %0, ptr noundef nonnull readonly align 8 captures(none) dereferenceable(8) %1) unnamed_addr #3 align 2 personality ptr @__gxx_personality_v0 {
  %3 = tail call noalias noundef nonnull dereferenceable(8) ptr @_Znwm(i64 noundef 8) #14
  %4 = load ptr, ptr %1, align 8, !tbaa !10
  store ptr %4, ptr %3, align 8, !tbaa !10
  %5 = load i64, ptr %4, align 8
  %6 = lshr i64 %5, 40
  %7 = trunc nuw nsw i64 %6 to i32
  %8 = and i32 %7, 1048575
  %9 = icmp samesign ult i32 %8, 1048574
  br i1 %9, label %10, label %15, !prof !25

10:                                               ; preds = %2
  %11 = add i64 %5, 1099511627776
  %12 = and i64 %11, 1152920405095219200
  %13 = and i64 %5, -1152920405095219201
  %14 = or disjoint i64 %12, %13
  store i64 %14, ptr %4, align 8
  br label %_ZN4cvc58internal8TypeNodeC2ERKS1_.exit

15:                                               ; preds = %2
  %16 = icmp eq i32 %8, 1048574
  br i1 %16, label %17, label %_ZN4cvc58internal8TypeNodeC2ERKS1_.exit, !prof !26

17:                                               ; preds = %15
  %18 = or i64 %5, 1152920405095219200
  store i64 %18, ptr %4, align 8
  invoke void @_ZN4cvc58internal4expr9NodeValue20markRefCountMaxedOutEv(ptr noundef nonnull align 8 dereferenceable(24) %4)
          to label %_ZN4cvc58internal8TypeNodeC2ERKS1_.exit unwind label %19

_ZN4cvc58internal8TypeNodeC2ERKS1_.exit:          ; preds = %15, %10, %17
  store ptr %3, ptr %0, align 8, !tbaa !3
  ret void

19:                                               ; preds = %17
  %20 = landingpad { ptr, i32 }
          cleanup
  tail call void @_ZdlPvm(ptr noundef nonnull %3, i64 noundef 8) #15
  resume { ptr, i32 } %20
}